; ModuleID = 'bench/openssl/original/rsa_x931.ll'
source_filename = "bench/openssl/original/rsa_x931.ll"
target datalayout = "e-m:e-p270:32:32-p271:32:32-p272:64:64-i64:64-i128:128-f80:128-n8:16:32:64-S128"
target triple = "x86_64-pc-linux-gnu"

@.str = private unnamed_addr constant [33 x i8] c"../openssl/crypto/rsa/rsa_x931.c\00", align 1
@__func__.RSA_padding_add_X931 = private unnamed_addr constant [21 x i8] c"RSA_padding_add_X931\00", align 1
@__func__.RSA_padding_check_X931 = private unnamed_addr constant [23 x i8] c"RSA_padding_check_X931\00", align 1

; Function Attrs: nounwind uwtable
define range(i32 -1, 2) i32 @RSA_padding_add_X931(ptr noundef writeonly captures(none) %0, i32 noundef %1, ptr noundef readonly captures(none) %2, i32 noundef %3) local_unnamed_addr #0 {
  %5 = sub nsw i32 %1, %3
  %6 = icmp slt i32 %5, 2
  br i1 %6, label %7, label %8

7:                                                ; preds = %4
  tail call void @ERR_new() #5
  tail call void @ERR_set_debug(ptr noundef nonnull @.str, i32 noundef 56, ptr noundef nonnull @__func__.RSA_padding_add_X931) #5
  tail call void (i32, i32, ptr, ...) @ERR_set_error(i32 noundef 4, i32 noundef 110, ptr noundef null) #5
  br label %23

8:                                                ; preds = %4
  %9 = icmp eq i32 %5, 2
  br i1 %9, label %10, label %11

10:                                               ; preds = %8
  store i8 106, ptr %0, align 1, !tbaa !3
  br label %19

11:                                               ; preds = %8
  %12 = getelementptr inbounds nuw i8, ptr %0, i64 1
  store i8 107, ptr %0, align 1, !tbaa !3
  %13 = icmp samesign ugt i32 %5, 3
  br i1 %13, label %14, label %18

14:                                               ; preds = %11
  %15 = add nsw i32 %5, -3
  %16 = zext nneg i32 %15 to i64
  tail call void @llvm.memset.p0.i64(ptr nonnull align 1 %12, i8 -69, i64 %16, i1 false)
  %17 = getelementptr inbounds nuw i8, ptr %12, i64 %16
  br label %18

18:                                               ; preds = %14, %11
  %.1 = phi ptr [ %17, %14 ], [ %12, %11 ]
  store i8 -70, ptr %.1, align 1, !tbaa !3
  br label %19

19:                                               ; preds = %18, %10
  %.pn = phi ptr [ %0, %10 ], [ %.1, %18 ]
  %.0 = getelementptr inbounds nuw i8, ptr %.pn, i64 1
  %20 = zext i32 %3 to i64
  tail call void @llvm.memcpy.p0.p0.i64(ptr nonnull align 1 %.0, ptr align 1 %2, i64 %20, i1 false)
  %21 = sext i32 %3 to i64
  %22 = getelementptr inbounds i8, ptr %.0, i64 %21
  store i8 -52, ptr %22, align 1, !tbaa !3
  br label %23

23:                                               ; preds = %19, %7
  %.019 = phi i32 [ -1, %7 ], [ 1, %19 ]
  ret i32 %.019
}

declare void @ERR_new() local_unnamed_addr #1

declare void @ERR_set_debug(ptr noundef, i32 noundef, ptr noundef) local_unnamed_addr #1

declare void @ERR_set_error(i32 noundef, i32 noundef, ptr noundef, ...) local_unnamed_addr #1

; Function Attrs: mustprogress nocallback nofree nounwind willreturn memory(argmem: write)
declare void @llvm.memset.p0.i64(ptr writeonly captures(none), i8, i64, i1 immarg) #2

; Function Attrs: mustprogress nocallback nofree nounwind willreturn memory(argmem: readwrite)
declare void @llvm.memcpy.p0.p0.i64(ptr noalias writeonly captures(none), ptr noalias readonly captures(none), i64, i1 immarg) #3

; Function Attrs: nounwind uwtable
define i32 @RSA_padding_check_X931(ptr noundef writeonly captures(none) %0, i32 noundef %1, ptr noundef readonly captures(none) %2, i32 noundef %3, i32 noundef %4) local_unnamed_addr #0 {
  %.not = icmp eq i32 %4, %3
  br i1 %.not, label %6, label %9

6:                                                ; preds = %5
  %7 = load i8, ptr %2, align 1, !tbaa !3
  %8 = and i8 %7, -2
  %switch = icmp eq i8 %8, 106
  br i1 %switch, label %10, label %9

9:                                                ; preds = %6, %5
  tail call void @ERR_new() #5
  tail call void @ERR_set_debug(ptr noundef nonnull @.str, i32 noundef 87, ptr noundef nonnull @__func__.RSA_padding_check_X931) #5
  tail call void (i32, i32, ptr, ...) @ERR_set_error(i32 noundef 4, i32 noundef 137, ptr noundef null) #5
  br label %32

10:                                               ; preds = %6
  %11 = getelementptr inbounds nuw i8, ptr %2, i64 1
  %12 = icmp eq i8 %7, 107
  br i1 %12, label %13, label %24

13:                                               ; preds = %10
  %14 = add i32 %4, -3
  %15 = icmp sgt i32 %4, 3
  br i1 %15, label %.lr.ph.preheader, label %._crit_edge.thread

.lr.ph.preheader:                                 ; preds = %13
  %16 = zext nneg i32 %4 to i64
  %17 = getelementptr i8, ptr %2, i64 %16
  %scevgep = getelementptr i8, ptr %17, i64 -2
  br label %.lr.ph

.lr.ph:                                           ; preds = %.lr.ph.preheader, %20
  %.02542 = phi ptr [ %18, %20 ], [ %11, %.lr.ph.preheader ]
  %.02941 = phi i32 [ %21, %20 ], [ 0, %.lr.ph.preheader ]
  %18 = getelementptr inbounds nuw i8, ptr %.02542, i64 1
  %19 = load i8, ptr %.02542, align 1, !tbaa !3
  switch i8 %19, label %.thread [
    i8 -70, label %._crit_edge
    i8 -69, label %20
  ]

.thread:                                          ; preds = %.lr.ph
  tail call void @ERR_new() #5
  tail call void @ERR_set_debug(ptr noundef nonnull @.str, i32 noundef 98, ptr noundef nonnull @__func__.RSA_padding_check_X931) #5
  tail call void (i32, i32, ptr, ...) @ERR_set_error(i32 noundef 4, i32 noundef 138, ptr noundef null) #5
  br label %32

20:                                               ; preds = %.lr.ph
  %21 = add nuw nsw i32 %.02941, 1
  %exitcond.not = icmp eq i32 %21, %14
  br i1 %exitcond.not, label %._crit_edge.thread50, label %.lr.ph, !llvm.loop !6

._crit_edge:                                      ; preds = %.lr.ph
  %22 = sub nsw i32 %14, %.02941
  %23 = icmp eq i32 %.02941, 0
  br i1 %23, label %._crit_edge.thread, label %._crit_edge.thread50

._crit_edge.thread:                               ; preds = %13, %._crit_edge
  tail call void @ERR_new() #5
  tail call void @ERR_set_debug(ptr noundef nonnull @.str, i32 noundef 106, ptr noundef nonnull @__func__.RSA_padding_check_X931) #5
  tail call void (i32, i32, ptr, ...) @ERR_set_error(i32 noundef 4, i32 noundef 138, ptr noundef null) #5
  br label %32

24:                                               ; preds = %10
  %25 = add nsw i32 %4, -2
  br label %._crit_edge.thread50

._crit_edge.thread50:                             ; preds = %20, %._crit_edge, %24
  %.028 = phi i32 [ %22, %._crit_edge ], [ %25, %24 ], [ 0, %20 ]
  %.227 = phi ptr [ %18, %._crit_edge ], [ %11, %24 ], [ %scevgep, %20 ]
  %26 = sext i32 %.028 to i64
  %27 = getelementptr inbounds i8, ptr %.227, i64 %26
  %28 = load i8, ptr %27, align 1, !tbaa !3
  %.not36 = icmp eq i8 %28, -52
  br i1 %.not36, label %30, label %29

29:                                               ; preds = %._crit_edge.thread50
  tail call void @ERR_new() #5
  tail call void @ERR_set_debug(ptr noundef nonnull @.str, i32 noundef 115, ptr noundef nonnull @__func__.RSA_padding_check_X931) #5
  tail call void (i32, i32, ptr, ...) @ERR_set_error(i32 noundef 4, i32 noundef 139, ptr noundef null) #5
  br label %32

30:                                               ; preds = %._crit_edge.thread50
  %31 = zext i32 %.028 to i64
  tail call void @llvm.memcpy.p0.p0.i64(ptr align 1 %0, ptr nonnull align 1 %.227, i64 %31, i1 false)
  br label %32

32:                                               ; preds = %.thread, %30, %29, %._crit_edge.thread, %9
  %.0 = phi i32 [ -1, %9 ], [ -1, %._crit_edge.thread ], [ -1, %29 ], [ %.028, %30 ], [ -1, %.thread ]
  ret i32 %.0
}

; Function Attrs: mustprogress nofree norecurse nosync nounwind willreturn memory(none) uwtable
define range(i32 -1, 55) i32 @RSA_X931_hash_id(i32 noundef %0) local_unnamed_addr #4 {
  switch i32 %0, label %5 [
    i32 64, label %6
    i32 672, label %2
    i32 673, label %3
    i32 674, label %4
  ]

2:                                                ; preds = %1
  br label %6

3:                                                ; preds = %1
  br label %6

4:                                                ; preds = %1
  br label %6

5:                                                ; preds = %1
  br label %6

6:                                                ; preds = %1, %5, %4, %3, %2
  %.0 = phi i32 [ -1, %5 ], [ 53, %4 ], [ 54, %3 ], [ 52, %2 ], [ 51, %1 ]
  ret i32 %.0
}


!llvm.module.flags = !{!0, !1, !2}

!0 = !{i32 1, !"wchar_size", i32 4}
!1 = !{i32 8, !"PIC Level", i32 2}
!2 = !{i32 7, !"uwtable", i32 2}
!3 = !{!4, !4, i64 0}
!4 = !{!"omnipotent char", !5, i64 0}
!5 = !{!"Simple C/C++ TBAA"}
!6 = distinct !{!6, !7}
!7 = !{!"llvm.loop.mustprogress"}
